; Function Attrs: mustprogress uwtable
define hidden noundef ptr @_ZNK11func_interp10get_interpEv(ptr nocapture noundef nonnull align 8 dereferenceable(56) %this) local_unnamed_addr #3 align 2 {
entry:
  %m_interp = getelementptr inbounds i8, ptr %this, i64 40
  %0 = load ptr, ptr %m_interp, align 8
  %cmp.not = icmp eq ptr %0, null
  br i1 %cmp.not, label %if.end, label %return

if.end:                                           ; preds = %entry
  %call = tail call noundef ptr @_ZNK11func_interp15get_interp_coreEv(ptr noundef nonnull align 8 dereferenceable(56) %this)
  %cmp3.not = icmp eq ptr %call, null
  br i1 %cmp3.not, label %return, label %_ZN11ast_manager7inc_refEP3ast.exit

_ZN11ast_manager7inc_refEP3ast.exit:              ; preds = %if.end
  store ptr %call, ptr %m_interp, align 8
  %m_ref_count.i.i = getelementptr inbounds i8, ptr %call, i64 8
  %1 = load i32, ptr %m_ref_count.i.i, align 4
  %inc.i.i = add i32 %1, 1
  store i32 %inc.i.i, ptr %m_ref_count.i.i, align 4
  br label %return

return:                                           ; preds = %if.end, %_ZN11ast_manager7inc_refEP3ast.exit, %entry
  %retval.0 = phi ptr [ %0, %entry ], [ %call, %_ZN11ast_manager7inc_refEP3ast.exit ], [ null, %if.end ]
  ret ptr %retval.0
}